TN:
SF:/u00/git/fyks/vx-cmake-template/test/MainTest.h
FN:35,_ZN8MainTest15addTestsToSuiteERN7CppUnit27TestSuiteBuilderContextBaseE
FNDA:0,_ZN8MainTest15addTestsToSuiteERN7CppUnit27TestSuiteBuilderContextBaseE
FN:35,_ZN8MainTest14getTestNamer__Ev
FNDA:0,_ZN8MainTest14getTestNamer__Ev
FN:39,_ZN8MainTest5suiteEv
FNDA:0,_ZN8MainTest5suiteEv
FNF:3
FNH:0
DA:35,0
DA:37,0
DA:39,0
DA:35,0
DA:39,0
LF:5
LH:0
end_of_record
SF:/u00/git/fyks/vx-cmake-template/test/MainTest.cpp
FN:29,_ZN8MainTestC2Ev
FNDA:2,_ZN8MainTestC2Ev
FN:31,_ZN8MainTestD0Ev
FNDA:1,_ZN8MainTestD0Ev
FN:31,_ZN8MainTestD2Ev
FNDA:1,_ZN8MainTestD2Ev
FN:33,_ZN8MainTest5setUpEv
FNDA:1,_ZN8MainTest5setUpEv
FN:36,_ZN8MainTest8tearDownEv
FNDA:1,_ZN8MainTest8tearDownEv
FN:39,_ZN8MainTest7testOneEv
FNDA:1,_ZN8MainTest7testOneEv
FNF:6
FNH:6
DA:29,2
DA:31,1
DA:31,1
DA:33,1
DA:34,1
DA:36,1
DA:37,1
DA:39,1
DA:40,1
LF:9
LH:9
end_of_record
TN:
SF:/u00/git/fyks/vx-cmake-template/test/MainTest.h
FN:35,_ZN8MainTest15addTestsToSuiteERN7CppUnit27TestSuiteBuilderContextBaseE
FNDA:2,_ZN8MainTest15addTestsToSuiteERN7CppUnit27TestSuiteBuilderContextBaseE
FN:35,_ZN8MainTest14getTestNamer__Ev
FNDA:2,_ZN8MainTest14getTestNamer__Ev
FN:39,_ZN8MainTest5suiteEv
FNDA:2,_ZN8MainTest5suiteEv
FNF:3
FNH:3
DA:35,2
DA:37,2
DA:39,2
DA:35,2
DA:39,4
LF:5
LH:5
end_of_record
